target datalayout = "e-m:e-p270:32:32-p271:32:32-p272:64:64-i64:64-i128:128-f80:128-n8:16:32:64-S128"
target triple = "x86_64-pc-linux-gnu"

%struct._packet_info = type { ptr, ptr, i32, i32, %struct.nstime_t, %struct.nstime_t, %struct.nstime_t, i8, ptr, ptr, ptr, ptr, %struct._address, %struct._address, %struct._address, %struct._address, %struct._address, %struct._address, i32, ptr, i8, [3 x i8], %struct.anon, i32, i32, i32, i32, ptr, i8, ptr, ptr, i16, i16, i32, i32, i16, i32, i32, ptr, ptr, ptr, i8, i8, i16, i16, i16, i32, i16, i16, ptr, ptr, ptr, ptr, ptr, i32, i32 }
%struct.nstime_t = type { i64, i32 }
%struct._address = type { i32, i32, ptr, ptr }
%struct.anon = type { i8, [3 x i8] }

@hf_docsis_rngreq_sid_field_bit15 = internal global i32 0, align 4
@hf_docsis_rngreq_sid_field_bit14 = internal global i32 0, align 4
@hf_docsis_rngreq_sid_field_bit15_14 = internal global i32 0, align 4
@hf_docsis_rngreq_sid = internal global i32 0, align 4
@hf_docsis_rngreq_pend_compl = internal global i32 0, align 4
@hf_docsis_mgt_down_chid = internal global i32 0, align 4
@ett_docsis_rngreq = internal global i32 0, align 4
@proto_docsis_mgmt = internal global i32 0, align 4
@proto_docsis_rngreq = internal global i32 0, align 4
@.str.2151 = private unnamed_addr constant [26 x i8] c"Ranging Request: SID = %u\00", align 1
@.str.2152 = private unnamed_addr constant [32 x i8] c"Initial Ranging Request SID = 0\00", align 1

; Function Attrs: null_pointer_is_valid sspstrong uwtable
define internal i32 @dissect_rngreq(ptr noundef %0, ptr noundef %1, ptr noundef %2, ptr noundef %3) #0 {
  %5 = alloca ptr, align 8
  %6 = alloca ptr, align 8
  %7 = alloca ptr, align 8
  %8 = alloca ptr, align 8
  %9 = alloca ptr, align 8
  %10 = alloca ptr, align 8
  %11 = alloca i32, align 4
  %12 = alloca i8, align 1
  store ptr %0, ptr %5, align 8
  store ptr %1, ptr %6, align 8
  store ptr %2, ptr %7, align 8
  store ptr %3, ptr %8, align 8
  call void @llvm.lifetime.start.p0(i64 8, ptr %9) #6
  call void @llvm.lifetime.start.p0(i64 8, ptr %10) #6
  call void @llvm.lifetime.start.p0(i64 4, ptr %11) #6
  call void @llvm.lifetime.start.p0(i64 1, ptr %12) #6
  %13 = load ptr, ptr %7, align 8
  %14 = load i32, ptr @proto_docsis_rngreq, align 4
  %15 = load ptr, ptr %5, align 8
  %16 = call ptr @proto_tree_add_item(ptr noundef %13, i32 noundef %14, ptr noundef %15, i32 noundef 0, i32 noundef -1, i32 noundef 0)
  store ptr %16, ptr %9, align 8
  %17 = load ptr, ptr %9, align 8
  %18 = load i32, ptr @ett_docsis_rngreq, align 4
  %19 = call ptr @proto_item_add_subtree(ptr noundef %17, i32 noundef %18)
  store ptr %19, ptr %10, align 8
  %20 = load ptr, ptr %6, align 8
  %21 = getelementptr inbounds nuw %struct._packet_info, ptr %20, i32 0, i32 51
  %22 = load ptr, ptr %21, align 8
  %23 = load ptr, ptr %6, align 8
  %24 = load i32, ptr @proto_docsis_mgmt, align 4
  %25 = call ptr @p_get_proto_data(ptr noundef %22, ptr noundef %23, i32 noundef %24, i32 noundef 0)
  %26 = ptrtoint ptr %25 to i64
  %27 = trunc i64 %26 to i32
  %28 = trunc i32 %27 to i8
  store i8 %28, ptr %12, align 1
  %29 = load i8, ptr %12, align 1
  %30 = zext i8 %29 to i32
  %31 = icmp eq i32 %30, 1
  br i1 %31, label %32, label %37

32:                                               ; preds = %4
  %33 = load ptr, ptr %10, align 8
  %34 = load i32, ptr @hf_docsis_rngreq_sid_field_bit15_14, align 4
  %35 = load ptr, ptr %5, align 8
  %36 = call ptr @proto_tree_add_item(ptr noundef %33, i32 noundef %34, ptr noundef %35, i32 noundef 0, i32 noundef 1, i32 noundef 0)
  br label %37

37:                                               ; preds = %32, %4
  %38 = load i8, ptr %12, align 1
  %39 = zext i8 %38 to i32
  %40 = icmp eq i32 %39, 5
  br i1 %40, label %41, label %50

41:                                               ; preds = %37
  %42 = load ptr, ptr %10, align 8
  %43 = load i32, ptr @hf_docsis_rngreq_sid_field_bit15, align 4
  %44 = load ptr, ptr %5, align 8
  %45 = call ptr @proto_tree_add_item(ptr noundef %42, i32 noundef %43, ptr noundef %44, i32 noundef 0, i32 noundef 1, i32 noundef 0)
  %46 = load ptr, ptr %10, align 8
  %47 = load i32, ptr @hf_docsis_rngreq_sid_field_bit14, align 4
  %48 = load ptr, ptr %5, align 8
  %49 = call ptr @proto_tree_add_item(ptr noundef %46, i32 noundef %47, ptr noundef %48, i32 noundef 0, i32 noundef 1, i32 noundef 0)
  br label %50

50:                                               ; preds = %41, %37
  %51 = load ptr, ptr %10, align 8
  %52 = load i32, ptr @hf_docsis_rngreq_sid, align 4
  %53 = load ptr, ptr %5, align 8
  %54 = call ptr @proto_tree_add_item_ret_uint(ptr noundef %51, i32 noundef %52, ptr noundef %53, i32 noundef 0, i32 noundef 2, i32 noundef 0, ptr noundef %11)
  %55 = load i32, ptr %11, align 4
  %56 = icmp ugt i32 %55, 0
  br i1 %56, label %57, label %62

57:                                               ; preds = %50
  %58 = load ptr, ptr %6, align 8
  %59 = getelementptr inbounds nuw %struct._packet_info, ptr %58, i32 0, i32 1
  %60 = load ptr, ptr %59, align 8
  %61 = load i32, ptr %11, align 4
  call void (ptr, i32, ptr, ...) @col_add_fstr(ptr noundef %60, i32 noundef 25, ptr noundef @.str.2151, i32 noundef %61)
  br label %66

62:                                               ; preds = %50
  %63 = load ptr, ptr %6, align 8
  %64 = getelementptr inbounds nuw %struct._packet_info, ptr %63, i32 0, i32 1
  %65 = load ptr, ptr %64, align 8
  call void @col_set_str(ptr noundef %65, i32 noundef 25, ptr noundef @.str.2152)
  br label %66

66:                                               ; preds = %62, %57
  %67 = load ptr, ptr %10, align 8
  %68 = load i32, ptr @hf_docsis_mgt_down_chid, align 4
  %69 = load ptr, ptr %5, align 8
  %70 = call ptr @proto_tree_add_item(ptr noundef %67, i32 noundef %68, ptr noundef %69, i32 noundef 2, i32 noundef 1, i32 noundef 0)
  %71 = load ptr, ptr %10, align 8
  %72 = load i32, ptr @hf_docsis_rngreq_pend_compl, align 4
  %73 = load ptr, ptr %5, align 8
  %74 = call ptr @proto_tree_add_item(ptr noundef %71, i32 noundef %72, ptr noundef %73, i32 noundef 3, i32 noundef 1, i32 noundef 0)
  %75 = load ptr, ptr %5, align 8
  %76 = call i32 @tvb_captured_length(ptr noundef %75)
  call void @llvm.lifetime.end.p0(i64 1, ptr %12) #6
  call void @llvm.lifetime.end.p0(i64 4, ptr %11) #6
  call void @llvm.lifetime.end.p0(i64 8, ptr %10) #6
  call void @llvm.lifetime.end.p0(i64 8, ptr %9) #6
  ret i32 %76
}