; Function Attrs: null_pointer_is_valid sspstrong uwtable
define internal i32 @dissect_rngreq(ptr noundef %0, ptr noundef %1, ptr noundef %2, ptr readnone captures(none) %3) #0 {
  %5 = alloca i32, align 4
  call void @llvm.lifetime.start.p0(i64 4, ptr nonnull %5) #6
  %6 = load i32, ptr @proto_docsis_rngreq, align 4
  %7 = tail call ptr @proto_tree_add_item(ptr noundef %2, i32 noundef %6, ptr noundef %0, i32 noundef 0, i32 noundef -1, i32 noundef 0)
  %8 = load i32, ptr @ett_docsis_rngreq, align 4
  %9 = tail call ptr @proto_item_add_subtree(ptr noundef %7, i32 noundef %8)
  %10 = getelementptr inbounds nuw i8, ptr %1, i64 408
  %11 = load ptr, ptr %10, align 8
  %12 = load i32, ptr @proto_docsis_mgmt, align 4
  %13 = tail call ptr @p_get_proto_data(ptr noundef %11, ptr noundef %1, i32 noundef %12, i32 noundef 0)
  %14 = ptrtoint ptr %13 to i64
  %15 = trunc i64 %14 to i8
  switch i8 %15, label %21 [
    i8 1, label %.sink.split
    i8 5, label %16
  ]

16:                                               ; preds = %4
  %17 = load i32, ptr @hf_docsis_rngreq_sid_field_bit15, align 4
  %18 = tail call ptr @proto_tree_add_item(ptr noundef %9, i32 noundef %17, ptr noundef %0, i32 noundef 0, i32 noundef 1, i32 noundef 0)
  br label %.sink.split

.sink.split:                                      ; preds = %4, %16
  %hf_docsis_rngreq_sid_field_bit15_14.sink = phi ptr [ @hf_docsis_rngreq_sid_field_bit14, %16 ], [ @hf_docsis_rngreq_sid_field_bit15_14, %4 ]
  %19 = load i32, ptr %hf_docsis_rngreq_sid_field_bit15_14.sink, align 4
  %20 = tail call ptr @proto_tree_add_item(ptr noundef %9, i32 noundef %19, ptr noundef %0, i32 noundef 0, i32 noundef 1, i32 noundef 0)
  br label %21

21:                                               ; preds = %.sink.split, %4
  %22 = load i32, ptr @hf_docsis_rngreq_sid, align 4
  %23 = call ptr @proto_tree_add_item_ret_uint(ptr noundef %9, i32 noundef %22, ptr noundef %0, i32 noundef 0, i32 noundef 2, i32 noundef 0, ptr noundef nonnull %5)
  %24 = load i32, ptr %5, align 4
  %.not = icmp eq i32 %24, 0
  %25 = getelementptr inbounds nuw i8, ptr %1, i64 8
  %26 = load ptr, ptr %25, align 8
  br i1 %.not, label %28, label %27

27:                                               ; preds = %21
  call void (ptr, i32, ptr, ...) @col_add_fstr(ptr noundef %26, i32 noundef 25, ptr noundef nonnull @.str.2151, i32 noundef %24)
  br label %29

28:                                               ; preds = %21
  call void @col_set_str(ptr noundef %26, i32 noundef 25, ptr noundef nonnull @.str.2152)
  br label %29

29:                                               ; preds = %28, %27
  %30 = load i32, ptr @hf_docsis_mgt_down_chid, align 4
  %31 = call ptr @proto_tree_add_item(ptr noundef %9, i32 noundef %30, ptr noundef %0, i32 noundef 2, i32 noundef 1, i32 noundef 0)
  %32 = load i32, ptr @hf_docsis_rngreq_pend_compl, align 4
  %33 = call ptr @proto_tree_add_item(ptr noundef %9, i32 noundef %32, ptr noundef %0, i32 noundef 3, i32 noundef 1, i32 noundef 0)
  %34 = call i32 @tvb_captured_length(ptr noundef %0)
  call void @llvm.lifetime.end.p0(i64 4, ptr nonnull %5) #6
  ret i32 %34
}